; Function Attrs: mustprogress uwtable
define noundef nonnull align 8 dereferenceable(12) ptr @_ZN3nix10SQLiteStmt3UseclElb(ptr noundef nonnull returned align 8 dereferenceable(12) %0, i64 noundef %1, i1 noundef zeroext %2) local_unnamed_addr #2 align 2 personality ptr @__gxx_personality_v0 {
  %4 = alloca %"class.std::__cxx11::basic_string", align 8
  %5 = alloca %"class.std::allocator.4", align 1
  br i1 %2, label %6, label %24

6:                                                ; preds = %3
  %7 = load ptr, ptr %0, align 8
  %8 = getelementptr inbounds i8, ptr %7, i64 8
  %9 = load ptr, ptr %8, align 8
  %10 = getelementptr inbounds i8, ptr %0, i64 8
  %11 = load i32, ptr %10, align 8
  %12 = add i32 %11, 1
  store i32 %12, ptr %10, align 8
  %13 = tail call i32 @sqlite3_bind_int64(ptr noundef %9, i32 noundef %11, i64 noundef %1)
  %.not = icmp eq i32 %13, 0
  br i1 %.not, label %26, label %14

14:                                               ; preds = %6
  %15 = load ptr, ptr %0, align 8
  %16 = load ptr, ptr %15, align 8
  call void @_ZNSaIcEC1Ev(ptr noundef nonnull align 1 dereferenceable(1) %5) #22
  invoke void @_ZNSt7__cxx1112basic_stringIcSt11char_traitsIcESaIcEEC2IS3_EEPKcRKS3_(ptr noundef nonnull align 8 dereferenceable(32) %4, ptr noundef nonnull @.str.23, ptr noundef nonnull align 1 dereferenceable(1) %5)
          to label %17 unwind label %19

17:                                               ; preds = %14
  invoke void @_ZN3nix11SQLiteError6throw_IJEEEvP7sqlite3RKNSt7__cxx1112basic_stringIcSt11char_traitsIcESaIcEEEDpRKT_(ptr noundef %16, ptr noundef nonnull align 8 dereferenceable(32) %4) #24
          to label %18 unwind label %21

18:                                               ; preds = %17
  unreachable

19:                                               ; preds = %14
  %20 = landingpad { ptr, i32 }
          cleanup
  br label %23

21:                                               ; preds = %17
  %22 = landingpad { ptr, i32 }
          cleanup
  call void @_ZNSt7__cxx1112basic_stringIcSt11char_traitsIcESaIcEED2Ev(ptr noundef nonnull align 8 dereferenceable(32) %4) #22
  br label %23

23:                                               ; preds = %21, %19
  %.pn = phi { ptr, i32 } [ %22, %21 ], [ %20, %19 ]
  call void @_ZNSaIcED1Ev(ptr noundef nonnull align 1 dereferenceable(1) %5) #22
  resume { ptr, i32 } %.pn

24:                                               ; preds = %3
  %25 = tail call noundef nonnull align 8 dereferenceable(12) ptr @_ZN3nix10SQLiteStmt3Use4bindEv(ptr noundef nonnull align 8 dereferenceable(12) %0)
  br label %26

26:                                               ; preds = %6, %24
  ret ptr %0
}